target datalayout = "e-m:e-p270:32:32-p271:32:32-p272:64:64-i64:64-i128:128-f80:128-n8:16:32:64-S128"
target triple = "x86_64-pc-linux-gnu"

%struct.lv_area_t = type { i32, i32, i32, i32 }

; Function Attrs: nounwind uwtable
define i32 @lv_area_get_size(ptr noundef %0) #0 {
  %2 = alloca ptr, align 8
  %3 = alloca i32, align 4
  store ptr %0, ptr %2, align 8, !tbaa !3
  call void @llvm.lifetime.start.p0(i64 4, ptr %3) #5
  %4 = load ptr, ptr %2, align 8, !tbaa !3
  %5 = getelementptr inbounds nuw %struct.lv_area_t, ptr %4, i32 0, i32 2
  %6 = load i32, ptr %5, align 4, !tbaa !12
  %7 = load ptr, ptr %2, align 8, !tbaa !3
  %8 = getelementptr inbounds nuw %struct.lv_area_t, ptr %7, i32 0, i32 0
  %9 = load i32, ptr %8, align 4, !tbaa !9
  %10 = sub nsw i32 %6, %9
  %11 = add nsw i32 %10, 1
  %12 = load ptr, ptr %2, align 8, !tbaa !3
  %13 = getelementptr inbounds nuw %struct.lv_area_t, ptr %12, i32 0, i32 3
  %14 = load i32, ptr %13, align 4, !tbaa !13
  %15 = load ptr, ptr %2, align 8, !tbaa !3
  %16 = getelementptr inbounds nuw %struct.lv_area_t, ptr %15, i32 0, i32 1
  %17 = load i32, ptr %16, align 4, !tbaa !11
  %18 = sub nsw i32 %14, %17
  %19 = add nsw i32 %18, 1
  %20 = mul i32 %11, %19
  store i32 %20, ptr %3, align 4, !tbaa !7
  %21 = load i32, ptr %3, align 4, !tbaa !7
  call void @llvm.lifetime.end.p0(i64 4, ptr %3) #5
  ret i32 %21
}