; Function Attrs: mustprogress nofree norecurse nosync nounwind willreturn memory(argmem: read) uwtable
define i32 @lv_area_get_size(ptr noundef readonly captures(none) %0) local_unnamed_addr #3 {
  %2 = getelementptr inbounds nuw i8, ptr %0, i64 8
  %3 = load i32, ptr %2, align 4, !tbaa !9
  %4 = load i32, ptr %0, align 4, !tbaa !3
  %5 = add i32 %3, 1
  %6 = sub i32 %5, %4
  %7 = getelementptr inbounds nuw i8, ptr %0, i64 12
  %8 = load i32, ptr %7, align 4, !tbaa !10
  %9 = getelementptr inbounds nuw i8, ptr %0, i64 4
  %10 = load i32, ptr %9, align 4, !tbaa !8
  %11 = add i32 %8, 1
  %12 = sub i32 %11, %10
  %13 = mul i32 %12, %6
  ret i32 %13
}